target datalayout = "e-m:e-p270:32:32-p271:32:32-p272:64:64-i64:64-i128:128-f80:128-n8:16:32:64-S128"
target triple = "x86_64-pc-linux-gnu"

%struct.HeapTupleData = type { i32, %struct.ItemPointerData, i32, ptr }
%struct.ItemPointerData = type { %struct.BlockIdData, i16 }
%struct.BlockIdData = type { i16, i16 }
%struct.HeapTupleHeaderData = type { %union.anon, %struct.ItemPointerData, i16, i16, i8, [0 x i8] }
%union.anon = type { %struct.HeapTupleFields }
%struct.HeapTupleFields = type { i32, i32, %union.anon.0 }
%union.anon.0 = type { i32 }
%struct.FormData_pg_operator = type { i32, %struct.nameData, i32, i32, i8, i8, i8, i32, i32, i32, i32, i32, i32, i32, i32 }
%struct.nameData = type { [64 x i8] }
%struct.FormData_pg_proc = type { i32, %struct.nameData, i32, i32, i32, float, float, i32, i32, i8, i8, i8, i8, i8, i8, i8, i16, i16, i32, %struct.oidvector }
%struct.oidvector = type { i32, i32, i32, i32, i32, i32, [0 x i32] }

@.str.1 = private unnamed_addr constant [12 x i8] c"lsyscache.c\00", align 1
@.str.10 = private unnamed_addr constant [27 x i8] c"operator %u does not exist\00", align 1
@__func__.op_volatile = private unnamed_addr constant [12 x i8] c"op_volatile\00", align 1
@.str.11 = private unnamed_addr constant [36 x i8] c"cache lookup failed for function %u\00", align 1
@__func__.func_volatile = private unnamed_addr constant [14 x i8] c"func_volatile\00", align 1

; Function Attrs: inlinehint nounwind uwtable
define internal ptr @GETSTRUCT(ptr noundef %0) #2 {
  %2 = alloca ptr, align 8
  store ptr %0, ptr %2, align 8
  %3 = load ptr, ptr %2, align 8
  %4 = getelementptr inbounds nuw %struct.HeapTupleData, ptr %3, i32 0, i32 3
  %5 = load ptr, ptr %4, align 8
  %6 = load ptr, ptr %2, align 8
  %7 = getelementptr inbounds nuw %struct.HeapTupleData, ptr %6, i32 0, i32 3
  %8 = load ptr, ptr %7, align 8
  %9 = getelementptr inbounds nuw %struct.HeapTupleHeaderData, ptr %8, i32 0, i32 4
  %10 = load i8, ptr %9, align 2
  %11 = zext i8 %10 to i32
  %12 = sext i32 %11 to i64
  %13 = getelementptr inbounds i8, ptr %5, i64 %12
  ret ptr %13
}

; Function Attrs: inlinehint nounwind uwtable
define internal i64 @ObjectIdGetDatum(i32 noundef %0) #2 {
  %2 = alloca i32, align 4
  store i32 %0, ptr %2, align 4
  %3 = load i32, ptr %2, align 4
  %4 = zext i32 %3 to i64
  ret i64 %4
}

; Function Attrs: nounwind uwtable
define dso_local signext i8 @func_volatile(i32 noundef %0) #0 {
  %2 = alloca i32, align 4
  %3 = alloca ptr, align 8
  %4 = alloca i8, align 1
  store i32 %0, ptr %2, align 4
  call void @llvm.lifetime.start.p0(i64 8, ptr %3) #7
  call void @llvm.lifetime.start.p0(i64 1, ptr %4) #7
  %5 = load i32, ptr %2, align 4
  %6 = call i64 @ObjectIdGetDatum(i32 noundef %5)
  %7 = call ptr @SearchSysCache1(i32 noundef 47, i64 noundef %6)
  store ptr %7, ptr %3, align 8
  %8 = load ptr, ptr %3, align 8
  %9 = icmp ne ptr %8, null
  br i1 %9, label %22, label %10

10:                                               ; preds = %1
  br label %11

11:                                               ; preds = %10
  br i1 true, label %12, label %14

12:                                               ; preds = %11
  %13 = call zeroext i1 @errstart_cold(i32 noundef 21, ptr noundef null) #8
  br i1 %13, label %16, label %19

14:                                               ; preds = %11
  %15 = call zeroext i1 @errstart(i32 noundef 21, ptr noundef null)
  br i1 %15, label %16, label %19

16:                                               ; preds = %14, %12
  %17 = load i32, ptr %2, align 4
  %18 = call i32 (ptr, ...) @errmsg_internal(ptr noundef @.str.11, i32 noundef %17)
  call void @errfinish(ptr noundef @.str.1, i32 noundef 1814, ptr noundef @__func__.func_volatile)
  br label %19

19:                                               ; preds = %16, %14, %12
  unreachable

20:                                               ; No predecessors!
  br label %21

21:                                               ; preds = %20
  br label %22

22:                                               ; preds = %21, %1
  %23 = load ptr, ptr %3, align 8
  %24 = call ptr @GETSTRUCT(ptr noundef %23)
  %25 = getelementptr inbounds nuw %struct.FormData_pg_proc, ptr %24, i32 0, i32 14
  %26 = load i8, ptr %25, align 1
  store i8 %26, ptr %4, align 1
  %27 = load ptr, ptr %3, align 8
  call void @ReleaseSysCache(ptr noundef %27)
  %28 = load i8, ptr %4, align 1
  call void @llvm.lifetime.end.p0(i64 1, ptr %4) #7
  call void @llvm.lifetime.end.p0(i64 8, ptr %3) #7
  ret i8 %28
}

; Function Attrs: nounwind uwtable
define dso_local i32 @get_opcode(i32 noundef %0) #0 {
  %2 = alloca i32, align 4
  %3 = alloca i32, align 4
  %4 = alloca ptr, align 8
  %5 = alloca ptr, align 8
  %6 = alloca i32, align 4
  %7 = alloca i32, align 4
  store i32 %0, ptr %3, align 4
  call void @llvm.lifetime.start.p0(i64 8, ptr %4) #7
  %8 = load i32, ptr %3, align 4
  %9 = call i64 @ObjectIdGetDatum(i32 noundef %8)
  %10 = call ptr @SearchSysCache1(i32 noundef 40, i64 noundef %9)
  store ptr %10, ptr %4, align 8
  %11 = load ptr, ptr %4, align 8
  %12 = icmp ne ptr %11, null
  br i1 %12, label %13, label %21

13:                                               ; preds = %1
  call void @llvm.lifetime.start.p0(i64 8, ptr %5) #7
  %14 = load ptr, ptr %4, align 8
  %15 = call ptr @GETSTRUCT(ptr noundef %14)
  store ptr %15, ptr %5, align 8
  call void @llvm.lifetime.start.p0(i64 4, ptr %6) #7
  %16 = load ptr, ptr %5, align 8
  %17 = getelementptr inbounds nuw %struct.FormData_pg_operator, ptr %16, i32 0, i32 12
  %18 = load i32, ptr %17, align 4
  store i32 %18, ptr %6, align 4
  %19 = load ptr, ptr %4, align 8
  call void @ReleaseSysCache(ptr noundef %19)
  %20 = load i32, ptr %6, align 4
  store i32 %20, ptr %2, align 4
  store i32 1, ptr %7, align 4
  call void @llvm.lifetime.end.p0(i64 4, ptr %6) #7
  call void @llvm.lifetime.end.p0(i64 8, ptr %5) #7
  br label %22

21:                                               ; preds = %1
  store i32 0, ptr %2, align 4
  store i32 1, ptr %7, align 4
  br label %22

22:                                               ; preds = %21, %13
  call void @llvm.lifetime.end.p0(i64 8, ptr %4) #7
  %23 = load i32, ptr %2, align 4
  ret i32 %23
}

; Function Attrs: nounwind uwtable
define dso_local signext i8 @op_volatile(i32 noundef %0) #0 {
  %2 = alloca i32, align 4
  %3 = alloca i32, align 4
  store i32 %0, ptr %2, align 4
  call void @llvm.lifetime.start.p0(i64 4, ptr %3) #7
  %4 = load i32, ptr %2, align 4
  %5 = call i32 @get_opcode(i32 noundef %4)
  store i32 %5, ptr %3, align 4
  %6 = load i32, ptr %3, align 4
  %7 = icmp eq i32 %6, 0
  br i1 %7, label %8, label %20

8:                                                ; preds = %1
  br label %9

9:                                                ; preds = %8
  br i1 true, label %10, label %12

10:                                               ; preds = %9
  %11 = call zeroext i1 @errstart_cold(i32 noundef 21, ptr noundef null) #8
  br i1 %11, label %14, label %17

12:                                               ; preds = %9
  %13 = call zeroext i1 @errstart(i32 noundef 21, ptr noundef null)
  br i1 %13, label %14, label %17

14:                                               ; preds = %12, %10
  %15 = load i32, ptr %2, align 4
  %16 = call i32 (ptr, ...) @errmsg_internal(ptr noundef @.str.10, i32 noundef %15)
  call void @errfinish(ptr noundef @.str.1, i32 noundef 1525, ptr noundef @__func__.op_volatile)
  br label %17

17:                                               ; preds = %14, %12, %10
  unreachable

18:                                               ; No predecessors!
  br label %19

19:                                               ; preds = %18
  br label %20

20:                                               ; preds = %19, %1
  %21 = load i32, ptr %3, align 4
  %22 = call signext i8 @func_volatile(i32 noundef %21)
  call void @llvm.lifetime.end.p0(i64 4, ptr %3) #7
  ret i8 %22
}